target datalayout = "e-m:e-p270:32:32-p271:32:32-p272:64:64-i64:64-i128:128-f80:128-n8:16:32:64-S128"
target triple = "x86_64-pc-linux-gnu"

%struct.Dch_Man_t_ = type { ptr, ptr, ptr, ptr, ptr, ptr, i32, ptr, ptr, i32, i32, ptr, ptr, ptr, i32, i32, i32, i32, i32, i32, i32, i32, i32, i32, i32, i64, i64, i64, i64, i64, i64, i64, i64, i64 }
%struct.Aig_Obj_t_ = type { %union.anon, ptr, ptr, i64, i32, i32, %union.anon.0 }
%union.anon = type { ptr }
%union.anon.0 = type { ptr }
%struct.Aig_Man_t_ = type { ptr, ptr, ptr, ptr, ptr, ptr, ptr, %struct.Aig_Obj_t_, i32, i32, i32, i32, i32, i32, [7 x i32], i32, ptr, i32, ptr, i32, ptr, i32, i32, i32, ptr, i32, i32, i32, i32, i32, ptr, ptr, i32, ptr, ptr, i32, ptr, ptr, i32, i32, i32, ptr, ptr, ptr, ptr, ptr, ptr, ptr, ptr, ptr, ptr, ptr, ptr, ptr, ptr, i32, ptr, ptr, ptr, ptr, i32, i64, i64, i64, ptr, ptr }

; Function Attrs: inlinehint nounwind uwtable
define internal i32 @Aig_IsComplement(ptr noundef %0) #2 {
  %2 = alloca ptr, align 8
  store ptr %0, ptr %2, align 8, !tbaa !8
  %3 = load ptr, ptr %2, align 8, !tbaa !8
  %4 = ptrtoint ptr %3 to i64
  %5 = and i64 %4, 1
  %6 = trunc i64 %5 to i32
  ret i32 %6
}

; Function Attrs: inlinehint nounwind uwtable
define internal ptr @Aig_Regular(ptr noundef %0) #2 {
  %2 = alloca ptr, align 8
  store ptr %0, ptr %2, align 8, !tbaa !8
  %3 = load ptr, ptr %2, align 8, !tbaa !8
  %4 = ptrtoint ptr %3 to i64
  %5 = and i64 %4, -2
  %6 = inttoptr i64 %5 to ptr
  ret ptr %6
}

; Function Attrs: inlinehint nounwind uwtable
define internal i32 @Aig_ObjFaninC1(ptr noundef %0) #2 {
  %2 = alloca ptr, align 8
  store ptr %0, ptr %2, align 8, !tbaa !8
  %3 = load ptr, ptr %2, align 8, !tbaa !8
  %4 = getelementptr inbounds nuw %struct.Aig_Obj_t_, ptr %3, i32 0, i32 2
  %5 = load ptr, ptr %4, align 8, !tbaa !66
  %6 = call i32 @Aig_IsComplement(ptr noundef %5)
  ret i32 %6
}

; Function Attrs: inlinehint nounwind uwtable
define internal i32 @Aig_ObjFaninC0(ptr noundef %0) #2 {
  %2 = alloca ptr, align 8
  store ptr %0, ptr %2, align 8, !tbaa !8
  %3 = load ptr, ptr %2, align 8, !tbaa !8
  %4 = getelementptr inbounds nuw %struct.Aig_Obj_t_, ptr %3, i32 0, i32 1
  %5 = load ptr, ptr %4, align 8, !tbaa !65
  %6 = call i32 @Aig_IsComplement(ptr noundef %5)
  ret i32 %6
}

; Function Attrs: inlinehint nounwind uwtable
define internal ptr @Aig_ObjFanin1(ptr noundef %0) #2 {
  %2 = alloca ptr, align 8
  store ptr %0, ptr %2, align 8, !tbaa !8
  %3 = load ptr, ptr %2, align 8, !tbaa !8
  %4 = getelementptr inbounds nuw %struct.Aig_Obj_t_, ptr %3, i32 0, i32 2
  %5 = load ptr, ptr %4, align 8, !tbaa !66
  %6 = call ptr @Aig_Regular(ptr noundef %5)
  ret ptr %6
}

; Function Attrs: inlinehint nounwind uwtable
define internal ptr @Aig_ObjFanin0(ptr noundef %0) #2 {
  %2 = alloca ptr, align 8
  store ptr %0, ptr %2, align 8, !tbaa !8
  %3 = load ptr, ptr %2, align 8, !tbaa !8
  %4 = getelementptr inbounds nuw %struct.Aig_Obj_t_, ptr %3, i32 0, i32 1
  %5 = load ptr, ptr %4, align 8, !tbaa !65
  %6 = call ptr @Aig_Regular(ptr noundef %5)
  ret ptr %6
}

; Function Attrs: inlinehint nounwind uwtable
define internal i32 @Aig_ObjIsCi(ptr noundef %0) #2 {
  %2 = alloca ptr, align 8
  store ptr %0, ptr %2, align 8, !tbaa !8
  %3 = load ptr, ptr %2, align 8, !tbaa !8
  %4 = getelementptr inbounds nuw %struct.Aig_Obj_t_, ptr %3, i32 0, i32 3
  %5 = load i64, ptr %4, align 8
  %6 = and i64 %5, 7
  %7 = trunc i64 %6 to i32
  %8 = icmp eq i32 %7, 2
  %9 = zext i1 %8 to i32
  ret i32 %9
}

; Function Attrs: inlinehint nounwind uwtable
define internal void @Aig_ObjSetTravIdCurrent(ptr noundef %0, ptr noundef %1) #2 {
  %3 = alloca ptr, align 8
  %4 = alloca ptr, align 8
  store ptr %0, ptr %3, align 8, !tbaa !28
  store ptr %1, ptr %4, align 8, !tbaa !8
  %5 = load ptr, ptr %3, align 8, !tbaa !28
  %6 = getelementptr inbounds nuw %struct.Aig_Man_t_, ptr %5, i32 0, i32 38
  %7 = load i32, ptr %6, align 8, !tbaa !30
  %8 = load ptr, ptr %4, align 8, !tbaa !8
  %9 = getelementptr inbounds nuw %struct.Aig_Obj_t_, ptr %8, i32 0, i32 4
  store i32 %7, ptr %9, align 8, !tbaa !29
  ret void
}

; Function Attrs: inlinehint nounwind uwtable
define internal i32 @Aig_ObjIsTravIdCurrent(ptr noundef %0, ptr noundef %1) #2 {
  %3 = alloca ptr, align 8
  %4 = alloca ptr, align 8
  store ptr %0, ptr %3, align 8, !tbaa !28
  store ptr %1, ptr %4, align 8, !tbaa !8
  %5 = load ptr, ptr %4, align 8, !tbaa !8
  %6 = getelementptr inbounds nuw %struct.Aig_Obj_t_, ptr %5, i32 0, i32 4
  %7 = load i32, ptr %6, align 8, !tbaa !29
  %8 = load ptr, ptr %3, align 8, !tbaa !28
  %9 = getelementptr inbounds nuw %struct.Aig_Man_t_, ptr %8, i32 0, i32 38
  %10 = load i32, ptr %9, align 8, !tbaa !30
  %11 = icmp eq i32 %7, %10
  %12 = zext i1 %11 to i32
  ret i32 %12
}

; Function Attrs: nounwind uwtable
define void @Dch_ManResimulateOther_rec(ptr noundef %0, ptr noundef %1) #0 {
  %3 = alloca ptr, align 8
  %4 = alloca ptr, align 8
  store ptr %0, ptr %3, align 8, !tbaa !3
  store ptr %1, ptr %4, align 8, !tbaa !8
  %5 = load ptr, ptr %3, align 8, !tbaa !3
  %6 = getelementptr inbounds nuw %struct.Dch_Man_t_, ptr %5, i32 0, i32 1
  %7 = load ptr, ptr %6, align 8, !tbaa !12
  %8 = load ptr, ptr %4, align 8, !tbaa !8
  %9 = call i32 @Aig_ObjIsTravIdCurrent(ptr noundef %7, ptr noundef %8)
  %10 = icmp ne i32 %9, 0
  br i1 %10, label %11, label %12

11:                                               ; preds = %2
  br label %67

12:                                               ; preds = %2
  %13 = load ptr, ptr %3, align 8, !tbaa !3
  %14 = getelementptr inbounds nuw %struct.Dch_Man_t_, ptr %13, i32 0, i32 1
  %15 = load ptr, ptr %14, align 8, !tbaa !12
  %16 = load ptr, ptr %4, align 8, !tbaa !8
  call void @Aig_ObjSetTravIdCurrent(ptr noundef %15, ptr noundef %16)
  %17 = load ptr, ptr %4, align 8, !tbaa !8
  %18 = call i32 @Aig_ObjIsCi(ptr noundef %17)
  %19 = icmp ne i32 %18, 0
  br i1 %19, label %20, label %31

20:                                               ; preds = %12
  %21 = call i32 @Aig_ManRandom(i32 noundef 0)
  %22 = and i32 %21, 1
  %23 = load ptr, ptr %4, align 8, !tbaa !8
  %24 = getelementptr inbounds nuw %struct.Aig_Obj_t_, ptr %23, i32 0, i32 3
  %25 = zext i32 %22 to i64
  %26 = load i64, ptr %24, align 8
  %27 = and i64 %25, 1
  %28 = shl i64 %27, 5
  %29 = and i64 %26, -33
  %30 = or i64 %29, %28
  store i64 %30, ptr %24, align 8
  br label %67

31:                                               ; preds = %12
  %32 = load ptr, ptr %3, align 8, !tbaa !3
  %33 = load ptr, ptr %4, align 8, !tbaa !8
  %34 = call ptr @Aig_ObjFanin0(ptr noundef %33)
  call void @Dch_ManResimulateOther_rec(ptr noundef %32, ptr noundef %34)
  %35 = load ptr, ptr %3, align 8, !tbaa !3
  %36 = load ptr, ptr %4, align 8, !tbaa !8
  %37 = call ptr @Aig_ObjFanin1(ptr noundef %36)
  call void @Dch_ManResimulateOther_rec(ptr noundef %35, ptr noundef %37)
  %38 = load ptr, ptr %4, align 8, !tbaa !8
  %39 = call ptr @Aig_ObjFanin0(ptr noundef %38)
  %40 = getelementptr inbounds nuw %struct.Aig_Obj_t_, ptr %39, i32 0, i32 3
  %41 = load i64, ptr %40, align 8
  %42 = lshr i64 %41, 5
  %43 = and i64 %42, 1
  %44 = trunc i64 %43 to i32
  %45 = load ptr, ptr %4, align 8, !tbaa !8
  %46 = call i32 @Aig_ObjFaninC0(ptr noundef %45)
  %47 = xor i32 %44, %46
  %48 = load ptr, ptr %4, align 8, !tbaa !8
  %49 = call ptr @Aig_ObjFanin1(ptr noundef %48)
  %50 = getelementptr inbounds nuw %struct.Aig_Obj_t_, ptr %49, i32 0, i32 3
  %51 = load i64, ptr %50, align 8
  %52 = lshr i64 %51, 5
  %53 = and i64 %52, 1
  %54 = trunc i64 %53 to i32
  %55 = load ptr, ptr %4, align 8, !tbaa !8
  %56 = call i32 @Aig_ObjFaninC1(ptr noundef %55)
  %57 = xor i32 %54, %56
  %58 = and i32 %47, %57
  %59 = load ptr, ptr %4, align 8, !tbaa !8
  %60 = getelementptr inbounds nuw %struct.Aig_Obj_t_, ptr %59, i32 0, i32 3
  %61 = zext i32 %58 to i64
  %62 = load i64, ptr %60, align 8
  %63 = and i64 %61, 1
  %64 = shl i64 %63, 5
  %65 = and i64 %62, -33
  %66 = or i64 %65, %64
  store i64 %66, ptr %60, align 8
  br label %67

67:                                               ; preds = %31, %20, %11
  ret void
}