; Function Attrs: nounwind uwtable
define void @Dch_ManResimulateOther_rec(ptr noundef %0, ptr noundef captures(none) %1) local_unnamed_addr #0 {
  %3 = getelementptr inbounds nuw i8, ptr %0, i64 8
  %4 = load ptr, ptr %3, align 8, !tbaa !3
  %5 = getelementptr i8, ptr %4, i64 312
  %.val = load i32, ptr %5, align 8, !tbaa !17
  %6 = getelementptr i8, ptr %1, i64 32
  %.val16 = load i32, ptr %6, align 8, !tbaa !26
  %.not = icmp eq i32 %.val16, %.val
  br i1 %.not, label %common.ret, label %7

7:                                                ; preds = %2
  store i32 %.val, ptr %6, align 8, !tbaa !26
  %8 = getelementptr i8, ptr %1, i64 24
  %.val18 = load i64, ptr %8, align 8
  %9 = and i64 %.val18, 7
  %.not25 = icmp eq i64 %9, 2
  br i1 %.not25, label %10, label %18

10:                                               ; preds = %7
  %11 = tail call i32 @Aig_ManRandom(i32 noundef 0) #11
  br label %common.ret.sink.split

common.ret.sink.split:                            ; preds = %18, %10
  %.sink30 = phi i32 [ %11, %10 ], [ %46, %18 ]
  %12 = load i64, ptr %8, align 8
  %13 = shl i32 %.sink30, 5
  %14 = and i32 %13, 32
  %15 = zext nneg i32 %14 to i64
  %16 = and i64 %12, -33
  %17 = or disjoint i64 %16, %15
  store i64 %17, ptr %8, align 8
  br label %common.ret

common.ret:                                       ; preds = %common.ret.sink.split, %2
  ret void

18:                                               ; preds = %7
  %19 = getelementptr i8, ptr %1, i64 8
  %.val20 = load ptr, ptr %19, align 8, !tbaa !59
  %20 = ptrtoint ptr %.val20 to i64
  %21 = and i64 %20, -2
  %22 = inttoptr i64 %21 to ptr
  tail call void @Dch_ManResimulateOther_rec(ptr noundef nonnull %0, ptr noundef %22)
  %23 = getelementptr i8, ptr %1, i64 16
  %.val22 = load ptr, ptr %23, align 8, !tbaa !60
  %24 = ptrtoint ptr %.val22 to i64
  %25 = and i64 %24, -2
  %26 = inttoptr i64 %25 to ptr
  tail call void @Dch_ManResimulateOther_rec(ptr noundef nonnull %0, ptr noundef %26)
  %.val19 = load ptr, ptr %19, align 8, !tbaa !59
  %27 = ptrtoint ptr %.val19 to i64
  %28 = and i64 %27, -2
  %29 = inttoptr i64 %28 to ptr
  %30 = getelementptr inbounds nuw i8, ptr %29, i64 24
  %31 = load i64, ptr %30, align 8
  %32 = trunc i64 %31 to i32
  %33 = lshr i32 %32, 5
  %34 = trunc i64 %27 to i32
  %35 = xor i32 %33, %34
  %.val21 = load ptr, ptr %23, align 8, !tbaa !60
  %36 = ptrtoint ptr %.val21 to i64
  %37 = and i64 %36, -2
  %38 = inttoptr i64 %37 to ptr
  %39 = getelementptr inbounds nuw i8, ptr %38, i64 24
  %40 = load i64, ptr %39, align 8
  %41 = trunc i64 %40 to i32
  %42 = lshr i32 %41, 5
  %43 = trunc i64 %36 to i32
  %44 = and i32 %43, 1
  %45 = xor i32 %42, %44
  %46 = and i32 %45, %35
  br label %common.ret.sink.split
}